; Function Attrs: nounwind uwtable
define noalias nonnull ptr @l_Lean_Syntax_MonadTraverser_getIdx___at_Lean_PrettyPrinter_Parenthesizer_maybeParenthesize___spec__1___boxed(ptr noundef %0) local_unnamed_addr #0 {
  tail call void @lean_inc_heartbeat() #6
  %2 = tail call noalias ptr @mi_malloc_small(i64 noundef 24) #6
  %3 = icmp eq ptr %2, null
  br i1 %3, label %4, label %l_Lean_Syntax_MonadTraverser_getIdx___at_Lean_PrettyPrinter_Parenthesizer_maybeParenthesize___spec__1.exit

4:                                                ; preds = %1
  tail call void @lean_internal_panic_out_of_memory() #7
  unreachable

l_Lean_Syntax_MonadTraverser_getIdx___at_Lean_PrettyPrinter_Parenthesizer_maybeParenthesize___spec__1.exit: ; preds = %1
  %5 = getelementptr inbounds nuw i8, ptr %2, i64 4
  store i32 1, ptr %2, align 4, !tbaa !8
  store i32 -184549352, ptr %5, align 4
  %6 = getelementptr inbounds nuw i8, ptr %2, i64 8
  store ptr @l_Lean_Syntax_MonadTraverser_getIdx___at_Lean_PrettyPrinter_Parenthesizer_maybeParenthesize___spec__1___rarg___boxed, ptr %6, align 8, !tbaa !4
  %7 = getelementptr inbounds nuw i8, ptr %2, i64 16
  store i16 4, ptr %7, align 8, !tbaa !15
  %8 = getelementptr inbounds nuw i8, ptr %2, i64 18
  store i16 0, ptr %8, align 2, !tbaa !15
  %9 = ptrtoint ptr %0 to i64
  %10 = and i64 %9, 1
  %.not = icmp eq i64 %10, 0
  br i1 %.not, label %11, label %lean_dec.exit

11:                                               ; preds = %l_Lean_Syntax_MonadTraverser_getIdx___at_Lean_PrettyPrinter_Parenthesizer_maybeParenthesize___spec__1.exit
  %12 = load i32, ptr %0, align 4, !tbaa !8
  %13 = icmp sgt i32 %12, 1
  br i1 %13, label %14, label %16, !prof !11

14:                                               ; preds = %11
  %15 = add nsw i32 %12, -1
  store i32 %15, ptr %0, align 4, !tbaa !8
  br label %lean_dec.exit

16:                                               ; preds = %11
  %.not.i = icmp eq i32 %12, 0
  br i1 %.not.i, label %lean_dec.exit, label %17

17:                                               ; preds = %16
  tail call void @lean_dec_ref_cold(ptr noundef nonnull %0) #6
  br label %lean_dec.exit

lean_dec.exit:                                    ; preds = %17, %16, %14, %l_Lean_Syntax_MonadTraverser_getIdx___at_Lean_PrettyPrinter_Parenthesizer_maybeParenthesize___spec__1.exit
  ret ptr %2
}